target datalayout = "e-m:e-p270:32:32-p271:32:32-p272:64:64-i64:64-i128:128-f80:128-n8:16:32:64-S128"
target triple = "x86_64-pc-linux-gnu"

%struct.re_pattern_buffer = type { ptr, i32, i32, i32, i32, i32, i32, i32, i32, i32, i32, i32, i32, i32, ptr, ptr, ptr, ptr, i32, i32, i32, i32, i64, i64, i32, ptr, ptr, [256 x i8], ptr, ptr, i64, i64, i64, ptr }
%struct.UnsetAddrList = type { i32, i32, ptr }
%struct._Node = type { %union.anon }
%union.anon = type { %struct.StrNode }
%struct.StrNode = type { %struct.NodeBase, ptr, ptr, i32, i32, [24 x i8] }
%struct.NodeBase = type { i32 }
%struct.EncloseNode = type { %struct.NodeBase, i32, i32, i32, i32, i32, ptr, i64, i64, i32, i32 }
%struct.UnsetAddr = type { i32, ptr }

; Function Attrs: alwaysinline nounwind
define internal ptr @memcpy.inline(ptr noalias nonnull %0, ptr noalias nonnull %1, i64 %2) #7 {
  %4 = alloca ptr, align 8
  %5 = alloca ptr, align 8
  %6 = alloca i64, align 8
  store ptr %0, ptr %4, align 8, !tbaa !36
  store ptr %1, ptr %5, align 8, !tbaa !36
  store i64 %2, ptr %6, align 8, !tbaa !14
  %7 = load ptr, ptr %4, align 8, !tbaa !36
  %8 = load ptr, ptr %5, align 8, !tbaa !36
  %9 = load i64, ptr %6, align 8, !tbaa !14
  %10 = load ptr, ptr %4, align 8, !tbaa !36
  %11 = call i64 @llvm.objectsize.i64.p0(ptr %10, i1 false, i1 true, i1 false)
  %12 = call ptr @__memcpy_chk(ptr noundef %7, ptr noundef %8, i64 noundef %9, i64 noundef %11) #11
  ret ptr %12
}

; Function Attrs: nounwind sspstrong uwtable
define internal i32 @unset_addr_list_fix(ptr noundef %0, ptr noundef %1) #0 {
  %3 = alloca i32, align 4
  %4 = alloca ptr, align 8
  %5 = alloca ptr, align 8
  %6 = alloca i32, align 4
  %7 = alloca i32, align 4
  %8 = alloca ptr, align 8
  %9 = alloca i32, align 4
  %10 = alloca i32, align 4
  %11 = alloca i32, align 4
  %12 = alloca ptr, align 8
  store ptr %0, ptr %4, align 8, !tbaa !36
  store ptr %1, ptr %5, align 8, !tbaa !21
  call void @llvm.lifetime.start.p0(i64 4, ptr %6) #11
  call void @llvm.lifetime.start.p0(i64 4, ptr %7) #11
  call void @llvm.lifetime.start.p0(i64 8, ptr %8) #11
  call void @llvm.lifetime.start.p0(i64 4, ptr %9) #11
  store i32 0, ptr %6, align 4, !tbaa !7
  br label %13

13:                                               ; preds = %112, %2
  %14 = load i32, ptr %6, align 4, !tbaa !7
  %15 = load ptr, ptr %4, align 8, !tbaa !36
  %16 = getelementptr inbounds nuw %struct.UnsetAddrList, ptr %15, i32 0, i32 0
  %17 = load i32, ptr %16, align 8, !tbaa !92
  %18 = icmp slt i32 %14, %17
  br i1 %18, label %19, label %115

19:                                               ; preds = %13
  %20 = load ptr, ptr %4, align 8, !tbaa !36
  %21 = getelementptr inbounds nuw %struct.UnsetAddrList, ptr %20, i32 0, i32 2
  %22 = load ptr, ptr %21, align 8, !tbaa !95
  %23 = load i32, ptr %6, align 4, !tbaa !7
  %24 = sext i32 %23 to i64
  %25 = getelementptr %struct.UnsetAddr, ptr %22, i64 %24
  %26 = getelementptr inbounds nuw %struct.UnsetAddr, ptr %25, i32 0, i32 1
  %27 = load ptr, ptr %26, align 8, !tbaa !167
  %28 = getelementptr inbounds nuw %struct._Node, ptr %27, i32 0, i32 0
  store ptr %28, ptr %8, align 8, !tbaa !36
  %29 = load ptr, ptr %8, align 8, !tbaa !36
  %30 = getelementptr inbounds nuw %struct.EncloseNode, ptr %29, i32 0, i32 1
  %31 = load i32, ptr %30, align 4, !tbaa !110
  %32 = and i32 %31, 512
  %33 = icmp ne i32 %32, 0
  br i1 %33, label %35, label %34

34:                                               ; preds = %19
  store i32 -11, ptr %3, align 4
  store i32 1, ptr %10, align 4
  br label %116

35:                                               ; preds = %19
  %36 = load ptr, ptr %8, align 8, !tbaa !36
  %37 = getelementptr inbounds nuw %struct.EncloseNode, ptr %36, i32 0, i32 5
  %38 = load i32, ptr %37, align 4, !tbaa !169
  store i32 %38, ptr %9, align 4, !tbaa !7
  %39 = load ptr, ptr %4, align 8, !tbaa !36
  %40 = getelementptr inbounds nuw %struct.UnsetAddrList, ptr %39, i32 0, i32 2
  %41 = load ptr, ptr %40, align 8, !tbaa !95
  %42 = load i32, ptr %6, align 4, !tbaa !7
  %43 = sext i32 %42 to i64
  %44 = getelementptr %struct.UnsetAddr, ptr %41, i64 %43
  %45 = getelementptr inbounds nuw %struct.UnsetAddr, ptr %44, i32 0, i32 0
  %46 = load i32, ptr %45, align 8, !tbaa !170
  store i32 %46, ptr %7, align 4, !tbaa !7
  br label %47

47:                                               ; preds = %35
  call void @llvm.lifetime.start.p0(i64 4, ptr %11) #11
  %48 = load i32, ptr %7, align 4, !tbaa !7
  %49 = add i32 %48, 4
  store i32 %49, ptr %11, align 4, !tbaa !7
  %50 = load ptr, ptr %5, align 8, !tbaa !21
  %51 = getelementptr inbounds nuw %struct.re_pattern_buffer, ptr %50, i32 0, i32 2
  %52 = load i32, ptr %51, align 4, !tbaa !41
  %53 = load i32, ptr %11, align 4, !tbaa !7
  %54 = icmp ult i32 %52, %53
  br i1 %54, label %55, label %89

55:                                               ; preds = %47
  br label %56

56:                                               ; preds = %55
  call void @llvm.lifetime.start.p0(i64 8, ptr %12) #11
  br label %57

57:                                               ; preds = %62, %56
  %58 = load ptr, ptr %5, align 8, !tbaa !21
  %59 = getelementptr inbounds nuw %struct.re_pattern_buffer, ptr %58, i32 0, i32 2
  %60 = load i32, ptr %59, align 4, !tbaa !41
  %61 = mul i32 %60, 2
  store i32 %61, ptr %59, align 4, !tbaa !41
  br label %62

62:                                               ; preds = %57
  %63 = load ptr, ptr %5, align 8, !tbaa !21
  %64 = getelementptr inbounds nuw %struct.re_pattern_buffer, ptr %63, i32 0, i32 2
  %65 = load i32, ptr %64, align 4, !tbaa !41
  %66 = load i32, ptr %11, align 4, !tbaa !7
  %67 = icmp ult i32 %65, %66
  br i1 %67, label %57, label %68, !llvm.loop !171

68:                                               ; preds = %62
  %69 = load ptr, ptr %5, align 8, !tbaa !21
  %70 = getelementptr inbounds nuw %struct.re_pattern_buffer, ptr %69, i32 0, i32 0
  %71 = load ptr, ptr %70, align 8, !tbaa !23
  %72 = load ptr, ptr %5, align 8, !tbaa !21
  %73 = getelementptr inbounds nuw %struct.re_pattern_buffer, ptr %72, i32 0, i32 2
  %74 = load i32, ptr %73, align 4, !tbaa !41
  %75 = zext i32 %74 to i64
  %76 = call ptr @realloc(ptr noundef %71, i64 noundef %75) #12
  store ptr %76, ptr %12, align 8, !tbaa !35
  %77 = load ptr, ptr %12, align 8, !tbaa !35
  %78 = icmp eq ptr %77, null
  br i1 %78, label %79, label %80

79:                                               ; preds = %68
  store i32 -5, ptr %3, align 4
  store i32 1, ptr %10, align 4
  br label %84

80:                                               ; preds = %68
  %81 = load ptr, ptr %12, align 8, !tbaa !35
  %82 = load ptr, ptr %5, align 8, !tbaa !21
  %83 = getelementptr inbounds nuw %struct.re_pattern_buffer, ptr %82, i32 0, i32 0
  store ptr %81, ptr %83, align 8, !tbaa !23
  store i32 0, ptr %10, align 4
  br label %84

84:                                               ; preds = %80, %79
  call void @llvm.lifetime.end.p0(i64 8, ptr %12) #11
  %85 = load i32, ptr %10, align 4
  switch i32 %85, label %107 [
    i32 0, label %86
  ]

86:                                               ; preds = %84
  br label %87

87:                                               ; preds = %86
  br label %88

88:                                               ; preds = %87
  br label %89

89:                                               ; preds = %88, %47
  %90 = load ptr, ptr %5, align 8, !tbaa !21
  %91 = getelementptr inbounds nuw %struct.re_pattern_buffer, ptr %90, i32 0, i32 0
  %92 = load ptr, ptr %91, align 8, !tbaa !23
  %93 = load i32, ptr %7, align 4, !tbaa !7
  %94 = sext i32 %93 to i64
  %95 = getelementptr i8, ptr %92, i64 %94
  %96 = call ptr @memcpy.inline(ptr noundef %95, ptr noundef %9, i64 noundef 4) #11
  %97 = load ptr, ptr %5, align 8, !tbaa !21
  %98 = getelementptr inbounds nuw %struct.re_pattern_buffer, ptr %97, i32 0, i32 1
  %99 = load i32, ptr %98, align 8, !tbaa !55
  %100 = load i32, ptr %11, align 4, !tbaa !7
  %101 = icmp ult i32 %99, %100
  br i1 %101, label %102, label %106

102:                                              ; preds = %89
  %103 = load i32, ptr %11, align 4, !tbaa !7
  %104 = load ptr, ptr %5, align 8, !tbaa !21
  %105 = getelementptr inbounds nuw %struct.re_pattern_buffer, ptr %104, i32 0, i32 1
  store i32 %103, ptr %105, align 8, !tbaa !55
  br label %106

106:                                              ; preds = %102, %89
  store i32 0, ptr %10, align 4
  br label %107

107:                                              ; preds = %106, %84
  call void @llvm.lifetime.end.p0(i64 4, ptr %11) #11
  %108 = load i32, ptr %10, align 4
  switch i32 %108, label %116 [
    i32 0, label %109
  ]

109:                                              ; preds = %107
  br label %110

110:                                              ; preds = %109
  br label %111

111:                                              ; preds = %110
  br label %112

112:                                              ; preds = %111
  %113 = load i32, ptr %6, align 4, !tbaa !7
  %114 = add i32 %113, 1
  store i32 %114, ptr %6, align 4, !tbaa !7
  br label %13, !llvm.loop !172

115:                                              ; preds = %13
  store i32 0, ptr %3, align 4
  store i32 1, ptr %10, align 4
  br label %116

116:                                              ; preds = %115, %107, %34
  call void @llvm.lifetime.end.p0(i64 4, ptr %9) #11
  call void @llvm.lifetime.end.p0(i64 8, ptr %8) #11
  call void @llvm.lifetime.end.p0(i64 4, ptr %7) #11
  call void @llvm.lifetime.end.p0(i64 4, ptr %6) #11
  %117 = load i32, ptr %3, align 4
  ret i32 %117
}