; Function Attrs: nounwind sspstrong uwtable
define internal fastcc range(i32 -11, 1) i32 @unset_addr_list_fix(ptr noundef nonnull readonly captures(none) %0, ptr noundef captures(none) %1) unnamed_addr #4 {
  %3 = getelementptr inbounds nuw i8, ptr %0, i64 8
  %4 = load i32, ptr %0, align 8, !tbaa !62
  %5 = icmp sgt i32 %4, 0
  br i1 %5, label %.lr.ph, label %.critedge37

.lr.ph:                                           ; preds = %2
  %6 = getelementptr inbounds nuw i8, ptr %1, i64 12
  %7 = getelementptr inbounds nuw i8, ptr %1, i64 8
  br label %8

8:                                                ; preds = %.lr.ph, %.critedge
  %.02939 = phi i32 [ 0, %.lr.ph ], [ %39, %.critedge ]
  %9 = load ptr, ptr %3, align 8, !tbaa !65
  %10 = zext nneg i32 %.02939 to i64
  %11 = getelementptr %struct.UnsetAddr, ptr %9, i64 %10, i32 1
  %12 = load ptr, ptr %11, align 8, !tbaa !203
  %13 = getelementptr inbounds nuw i8, ptr %12, i64 4
  %14 = load i32, ptr %13, align 4, !tbaa !142
  %15 = and i32 %14, 512
  %.not = icmp eq i32 %15, 0
  br i1 %.not, label %.critedge37, label %16

16:                                               ; preds = %8
  %17 = getelementptr inbounds nuw i8, ptr %12, i64 20
  %18 = load i32, ptr %17, align 4, !tbaa !209
  %19 = getelementptr %struct.UnsetAddr, ptr %9, i64 %10
  %20 = load i32, ptr %19, align 8, !tbaa !201
  %21 = add i32 %20, 4
  %22 = load i32, ptr %6, align 4, !tbaa !37
  %23 = icmp ult i32 %22, %21
  br i1 %23, label %.preheader, label %._crit_edge

._crit_edge:                                      ; preds = %16
  %.pre = load ptr, ptr %1, align 8, !tbaa !17
  br label %32

.preheader:                                       ; preds = %16, %.preheader
  %24 = phi i32 [ %25, %.preheader ], [ %22, %16 ]
  %25 = shl i32 %24, 1
  %26 = icmp ult i32 %25, %21
  br i1 %26, label %.preheader, label %27, !llvm.loop !212

27:                                               ; preds = %.preheader
  store i32 %25, ptr %6, align 4, !tbaa !37
  %28 = load ptr, ptr %1, align 8, !tbaa !17
  %29 = zext i32 %25 to i64
  %30 = tail call ptr @realloc(ptr noundef %28, i64 noundef %29) #21
  %.not36 = icmp eq ptr %30, null
  br i1 %.not36, label %.critedge37, label %31

31:                                               ; preds = %27
  store ptr %30, ptr %1, align 8, !tbaa !17
  br label %32

32:                                               ; preds = %._crit_edge, %31
  %33 = phi ptr [ %.pre, %._crit_edge ], [ %30, %31 ]
  %34 = sext i32 %20 to i64
  %35 = getelementptr i8, ptr %33, i64 %34
  store i32 %18, ptr %35, align 1
  %36 = load i32, ptr %7, align 8, !tbaa !115
  %37 = icmp ult i32 %36, %21
  br i1 %37, label %38, label %.critedge

38:                                               ; preds = %32
  store i32 %21, ptr %7, align 8, !tbaa !115
  br label %.critedge

.critedge:                                        ; preds = %38, %32
  %39 = add nuw nsw i32 %.02939, 1
  %40 = load i32, ptr %0, align 8, !tbaa !62
  %41 = icmp slt i32 %39, %40
  br i1 %41, label %8, label %.critedge37, !llvm.loop !213

.critedge37:                                      ; preds = %8, %.critedge, %27, %2
  %.1 = phi i32 [ 0, %2 ], [ -5, %27 ], [ 0, %.critedge ], [ -11, %8 ]
  ret i32 %.1
}